SF:/home/noah/src/trueno/src/error.rs
FN:58,_RNvNtNtCsex06JBUEZ1Z_6trueno5error5testss_14test_gpu_error
FN:70,_RNvNtNtCsex06JBUEZ1Z_6trueno5error5testss_19test_error_equality
FN:64,_RNvNtNtCsex06JBUEZ1Z_6trueno5error5testss_24test_invalid_input_error
FN:49,_RNvNtNtCsex06JBUEZ1Z_6trueno5error5testss_24test_size_mismatch_error
FN:40,_RNvNtNtCsex06JBUEZ1Z_6trueno5error5testss_30test_unsupported_backend_error
FNDA:1,_RNvNtNtCsex06JBUEZ1Z_6trueno5error5testss_14test_gpu_error
FNDA:1,_RNvNtNtCsex06JBUEZ1Z_6trueno5error5testss_19test_error_equality
FNDA:1,_RNvNtNtCsex06JBUEZ1Z_6trueno5error5testss_24test_invalid_input_error
FNDA:1,_RNvNtNtCsex06JBUEZ1Z_6trueno5error5testss_24test_size_mismatch_error
FNDA:1,_RNvNtNtCsex06JBUEZ1Z_6trueno5error5testss_30test_unsupported_backend_error
FNF:5
FNH:5
DA:40,1
DA:41,1
DA:42,1
DA:43,1
DA:46,1
DA:49,1
DA:50,1
DA:51,1
DA:52,1
DA:53,1
DA:54,1
DA:55,1
DA:58,1
DA:59,1
DA:60,1
DA:61,1
DA:64,1
DA:65,1
DA:66,1
DA:67,1
DA:70,1
DA:71,1
DA:72,1
DA:73,1
DA:74,1
DA:75,1
DA:76,1
DA:77,1
DA:78,1
DA:79,1
DA:80,1
BRF:0
BRH:0
LF:31
LH:31
end_of_record
SF:/home/noah/src/trueno/src/lib.rs
FN:103,_RNvCsex06JBUEZ1Z_6trueno29select_best_available_backend
FN:180,_RNvNtCsex06JBUEZ1Z_6trueno5testss_17test_backend_enum
FN:186,_RNvNtCsex06JBUEZ1Z_6trueno5testss_27test_op_complexity_ordering
FN:192,_RNvNtCsex06JBUEZ1Z_6trueno5testss_34test_select_best_available_backend
FN:226,_RNvNtCsex06JBUEZ1Z_6trueno5testss_39test_backend_selection_is_deterministic
FNDA:2135,_RNvCsex06JBUEZ1Z_6trueno29select_best_available_backend
FNDA:1,_RNvNtCsex06JBUEZ1Z_6trueno5testss_17test_backend_enum
FNDA:1,_RNvNtCsex06JBUEZ1Z_6trueno5testss_27test_op_complexity_ordering
FNDA:1,_RNvNtCsex06JBUEZ1Z_6trueno5testss_34test_select_best_available_backend
FNDA:1,_RNvNtCsex06JBUEZ1Z_6trueno5testss_39test_backend_selection_is_deterministic
FNF:5
FNH:5
DA:103,2135
DA:107,2135
DA:108,2135
DA:109,0
DA:110,0
DA:111,0
DA:112,0
DA:113,0
DA:114,0
DA:115,0
DA:116,0
DA:117,0
DA:118,0
DA:119,0
DA:173,2135
DA:180,1
DA:181,1
DA:182,1
DA:183,1
DA:186,1
DA:187,1
DA:188,1
DA:189,1
DA:192,1
DA:193,1
DA:200,1
DA:202,1
DA:203,1
DA:223,1
DA:226,1
DA:228,1
DA:229,1
DA:230,1
DA:231,1
BRF:0
BRH:0
LF:34
LH:23
end_of_record
SF:/home/noah/src/trueno/src/vector.rs
FN:330,_RNvNtNtCsex06JBUEZ1Z_6trueno6vector5testss_14test_add_empty
FN:395,_RNvNtNtCsex06JBUEZ1Z_6trueno6vector5testss_14test_dot_empty
FN:443,_RNvNtNtCsex06JBUEZ1Z_6trueno6vector5testss_14test_max_empty
FN:370,_RNvNtNtCsex06JBUEZ1Z_6trueno6vector5testss_14test_mul_empty
FN:418,_RNvNtNtCsex06JBUEZ1Z_6trueno6vector5testss_14test_sum_empty
FN:338,_RNvNtNtCsex06JBUEZ1Z_6trueno6vector5testss_15test_add_single
FN:273,_RNvNtNtCsex06JBUEZ1Z_6trueno6vector5testss_15test_from_slice
FN:437,_RNvNtNtCsex06JBUEZ1Z_6trueno6vector5testss_15test_max_single
FN:424,_RNvNtNtCsex06JBUEZ1Z_6trueno6vector5testss_15test_sum_single
FN:454,_RNvNtNtCsex06JBUEZ1Z_6trueno6vector5testss_17test_max_negative
FN:280,_RNvNtNtCsex06JBUEZ1Z_6trueno6vector5testss_21test_from_slice_empty
FN:346,_RNvNtNtCsex06JBUEZ1Z_6trueno6vector5testss_22test_add_size_mismatch
FN:403,_RNvNtNtCsex06JBUEZ1Z_6trueno6vector5testss_22test_dot_size_mismatch
FN:378,_RNvNtNtCsex06JBUEZ1Z_6trueno6vector5testss_22test_mul_size_mismatch
FN:300,_RNvNtNtCsex06JBUEZ1Z_6trueno6vector5testss_28test_auto_backend_resolution
FN:294,_RNvNtNtCsex06JBUEZ1Z_6trueno6vector5testss_28test_from_slice_with_backend
FN:287,_RNvNtNtCsex06JBUEZ1Z_6trueno6vector5testss_30test_from_slice_single_element
FN:322,_RNvNtNtCsex06JBUEZ1Z_6trueno6vector5testss_8test_add
FN:387,_RNvNtNtCsex06JBUEZ1Z_6trueno6vector5testss_8test_dot
FN:431,_RNvNtNtCsex06JBUEZ1Z_6trueno6vector5testss_8test_max
FN:362,_RNvNtNtCsex06JBUEZ1Z_6trueno6vector5testss_8test_mul
FN:412,_RNvNtNtCsex06JBUEZ1Z_6trueno6vector5testss_8test_sum
FN:149,_RNvMs_NtCsex06JBUEZ1Z_6trueno6vectorINtB4_6VectorfE3add
FN:217,_RNvMs_NtCsex06JBUEZ1Z_6trueno6vectorINtB4_6VectorfE3dot
FN:258,_RNvMs_NtCsex06JBUEZ1Z_6trueno6vectorINtB4_6VectorfE3max
FN:183,_RNvMs_NtCsex06JBUEZ1Z_6trueno6vectorINtB4_6VectorfE3mul
FN:240,_RNvMs_NtCsex06JBUEZ1Z_6trueno6vectorINtB4_6VectorfE3sum
FN:161,_RNCNvMs_NtCsex06JBUEZ1Z_6trueno6vectorINtB6_6VectorfE3add0B8_
FN:225,_RNCNvMs_NtCsex06JBUEZ1Z_6trueno6vectorINtB6_6VectorfE3dot0B8_
FN:262,_RNCNvMs_NtCsex06JBUEZ1Z_6trueno6vectorINtB6_6VectorfE3max0B8_
FN:263,_RNCNvMs_NtCsex06JBUEZ1Z_6trueno6vectorINtB6_6VectorfE3maxs_0B8_
FN:195,_RNCNvMs_NtCsex06JBUEZ1Z_6trueno6vectorINtB6_6VectorfE3mul0B8_
FN:45,_RNvMNtCsex06JBUEZ1Z_6trueno6vectorINtB2_6VectordE10from_sliceB4_
FN:62,_RNvMNtCsex06JBUEZ1Z_6trueno6vectorINtB2_6VectordE23from_slice_with_backendB4_
FN:98,_RNvMNtCsex06JBUEZ1Z_6trueno6vectorINtB2_6VectordE3lenB4_
FN:120,_RNvMNtCsex06JBUEZ1Z_6trueno6vectorINtB2_6VectordE7backendB4_
FN:84,_RNvMNtCsex06JBUEZ1Z_6trueno6vectorINtB2_6VectordE8as_sliceB4_
FN:45,_RNvMNtCsex06JBUEZ1Z_6trueno6vectorINtB2_6VectorfE10from_sliceB4_
FN:98,_RNvMNtCsex06JBUEZ1Z_6trueno6vectorINtB2_6VectorfE3lenB4_
FN:84,_RNvMNtCsex06JBUEZ1Z_6trueno6vectorINtB2_6VectorfE8as_sliceB4_
FN:115,_RNvMNtCsex06JBUEZ1Z_6trueno6vectorINtB2_6VectorfE8is_emptyB4_
FNDA:1,_RNvNtNtCsex06JBUEZ1Z_6trueno6vector5testss_14test_add_empty
FNDA:1,_RNvNtNtCsex06JBUEZ1Z_6trueno6vector5testss_14test_dot_empty
FNDA:1,_RNvNtNtCsex06JBUEZ1Z_6trueno6vector5testss_14test_max_empty
FNDA:1,_RNvNtNtCsex06JBUEZ1Z_6trueno6vector5testss_14test_mul_empty
FNDA:1,_RNvNtNtCsex06JBUEZ1Z_6trueno6vector5testss_14test_sum_empty
FNDA:1,_RNvNtNtCsex06JBUEZ1Z_6trueno6vector5testss_15test_add_single
FNDA:1,_RNvNtNtCsex06JBUEZ1Z_6trueno6vector5testss_15test_from_slice
FNDA:1,_RNvNtNtCsex06JBUEZ1Z_6trueno6vector5testss_15test_max_single
FNDA:1,_RNvNtNtCsex06JBUEZ1Z_6trueno6vector5testss_15test_sum_single
FNDA:1,_RNvNtNtCsex06JBUEZ1Z_6trueno6vector5testss_17test_max_negative
FNDA:1,_RNvNtNtCsex06JBUEZ1Z_6trueno6vector5testss_21test_from_slice_empty
FNDA:1,_RNvNtNtCsex06JBUEZ1Z_6trueno6vector5testss_22test_add_size_mismatch
FNDA:1,_RNvNtNtCsex06JBUEZ1Z_6trueno6vector5testss_22test_dot_size_mismatch
FNDA:1,_RNvNtNtCsex06JBUEZ1Z_6trueno6vector5testss_22test_mul_size_mismatch
FNDA:1,_RNvNtNtCsex06JBUEZ1Z_6trueno6vector5testss_28test_auto_backend_resolution
FNDA:1,_RNvNtNtCsex06JBUEZ1Z_6trueno6vector5testss_28test_from_slice_with_backend
FNDA:1,_RNvNtNtCsex06JBUEZ1Z_6trueno6vector5testss_30test_from_slice_single_element
FNDA:1,_RNvNtNtCsex06JBUEZ1Z_6trueno6vector5testss_8test_add
FNDA:1,_RNvNtNtCsex06JBUEZ1Z_6trueno6vector5testss_8test_dot
FNDA:1,_RNvNtNtCsex06JBUEZ1Z_6trueno6vector5testss_8test_max
FNDA:1,_RNvNtNtCsex06JBUEZ1Z_6trueno6vector5testss_8test_mul
FNDA:1,_RNvNtNtCsex06JBUEZ1Z_6trueno6vector5testss_8test_sum
FNDA:949,_RNvMs_NtCsex06JBUEZ1Z_6trueno6vectorINtB4_6VectorfE3add
FNDA:213,_RNvMs_NtCsex06JBUEZ1Z_6trueno6vectorINtB4_6VectorfE3dot
FNDA:109,_RNvMs_NtCsex06JBUEZ1Z_6trueno6vectorINtB4_6VectorfE3max
FNDA:738,_RNvMs_NtCsex06JBUEZ1Z_6trueno6vectorINtB4_6VectorfE3mul
FNDA:108,_RNvMs_NtCsex06JBUEZ1Z_6trueno6vectorINtB4_6VectorfE3sum
FNDA:21014,_RNCNvMs_NtCsex06JBUEZ1Z_6trueno6vectorINtB6_6VectorfE3add0B8_
FNDA:6323,_RNCNvMs_NtCsex06JBUEZ1Z_6trueno6vectorINtB6_6VectorfE3dot0B8_
FNDA:5097,_RNCNvMs_NtCsex06JBUEZ1Z_6trueno6vectorINtB6_6VectorfE3max0B8_
FNDA:1,_RNCNvMs_NtCsex06JBUEZ1Z_6trueno6vectorINtB6_6VectorfE3maxs_0B8_
FNDA:21304,_RNCNvMs_NtCsex06JBUEZ1Z_6trueno6vectorINtB6_6VectorfE3mul0B8_
FNDA:2,_RNvMNtCsex06JBUEZ1Z_6trueno6vectorINtB2_6VectordE10from_sliceB4_
FNDA:2,_RNvMNtCsex06JBUEZ1Z_6trueno6vectorINtB2_6VectordE23from_slice_with_backendB4_
FNDA:2,_RNvMNtCsex06JBUEZ1Z_6trueno6vectorINtB2_6VectordE3lenB4_
FNDA:5,_RNvMNtCsex06JBUEZ1Z_6trueno6vectorINtB2_6VectordE7backendB4_
FNDA:2,_RNvMNtCsex06JBUEZ1Z_6trueno6vectorINtB2_6VectordE8as_sliceB4_
FNDA:2128,_RNvMNtCsex06JBUEZ1Z_6trueno6vectorINtB2_6VectorfE10from_sliceB4_
FNDA:3807,_RNvMNtCsex06JBUEZ1Z_6trueno6vectorINtB2_6VectorfE3lenB4_
FNDA:1370,_RNvMNtCsex06JBUEZ1Z_6trueno6vectorINtB2_6VectorfE8as_sliceB4_
FNDA:1,_RNvMNtCsex06JBUEZ1Z_6trueno6vectorINtB2_6VectorfE8is_emptyB4_
FNF:38
FNH:38
DA:45,2130
DA:46,2130
DA:47,2130
DA:48,2130
DA:49,2130
DA:50,2130
DA:62,2
DA:63,2
DA:64,1
DA:65,1
DA:68,2
DA:69,2
DA:70,2
DA:71,2
DA:72,2
DA:84,1372
DA:85,1372
DA:86,1372
DA:98,3809
DA:99,3809
DA:100,3809
DA:115,1
DA:116,1
DA:117,1
DA:120,5
DA:121,5
DA:122,5
DA:149,949
DA:150,949
DA:151,1
DA:152,1
DA:153,1
DA:154,1
DA:155,948
DA:157,948
DA:158,948
DA:159,948
DA:160,948
DA:161,21014
DA:162,948
DA:164,948
DA:165,948
DA:166,948
DA:167,948
DA:168,949
DA:183,738
DA:184,738
DA:185,1
DA:186,1
DA:187,1
DA:188,1
DA:189,737
DA:191,737
DA:192,737
DA:193,737
DA:194,737
DA:195,21304
DA:196,737
DA:198,737
DA:199,737
DA:200,737
DA:201,737
DA:202,738
DA:217,213
DA:218,213
DA:219,1
DA:220,1
DA:221,1
DA:222,1
DA:223,212
DA:225,6323
DA:227,212
DA:228,213
DA:240,108
DA:241,108
DA:242,108
DA:258,109
DA:259,109
DA:260,109
DA:261,109
DA:262,5097
DA:263,109
DA:264,109
DA:273,1
DA:274,1
DA:275,1
DA:276,1
DA:277,1
DA:280,1
DA:281,1
DA:282,1
DA:283,1
DA:284,1
DA:287,1
DA:288,1
DA:289,1
DA:290,1
DA:291,1
DA:294,1
DA:295,1
DA:296,1
DA:297,1
DA:300,1
DA:301,1
DA:303,1
DA:304,1
DA:307,1
DA:312,1
DA:313,1
DA:314,1
DA:318,1
DA:322,1
DA:323,1
DA:324,1
DA:325,1
DA:326,1
DA:327,1
DA:330,1
DA:331,1
DA:332,1
DA:333,1
DA:334,1
DA:335,1
DA:338,1
DA:339,1
DA:340,1
DA:341,1
DA:342,1
DA:343,1
DA:346,1
DA:347,1
DA:348,1
DA:349,1
DA:350,1
DA:351,1
DA:352,1
DA:358,1
DA:362,1
DA:363,1
DA:364,1
DA:365,1
DA:366,1
DA:367,1
DA:370,1
DA:371,1
DA:372,1
DA:373,1
DA:374,1
DA:375,1
DA:378,1
DA:379,1
DA:380,1
DA:381,1
DA:382,1
DA:383,1
DA:387,1
DA:388,1
DA:389,1
DA:390,1
DA:391,1
DA:392,1
DA:395,1
DA:396,1
DA:397,1
DA:398,1
DA:399,1
DA:400,1
DA:403,1
DA:404,1
DA:405,1
DA:406,1
DA:407,1
DA:408,1
DA:412,1
DA:413,1
DA:414,1
DA:415,1
DA:418,1
DA:419,1
DA:420,1
DA:421,1
DA:424,1
DA:425,1
DA:426,1
DA:427,1
DA:431,1
DA:432,1
DA:433,1
DA:434,1
DA:437,1
DA:438,1
DA:439,1
DA:440,1
DA:443,1
DA:444,1
DA:445,1
DA:446,1
DA:447,1
DA:448,1
DA:449,1
DA:451,1
DA:454,1
DA:455,1
DA:456,1
DA:457,1
BRF:0
BRH:0
LF:210
LH:210
end_of_record